target datalayout = "e-m:e-p270:32:32-p271:32:32-p272:64:64-i64:64-i128:128-f80:128-n8:16:32:64-S128"
target triple = "x86_64-pc-linux-gnu"

; Function Attrs: nounwind uwtable
define hidden ptr @normalize_path(ptr noundef %0) #0 {
  %2 = alloca ptr, align 8
  %3 = alloca ptr, align 8
  %4 = alloca i32, align 4
  %5 = alloca i32, align 4
  %6 = alloca i8, align 1
  %7 = alloca i8, align 1
  store ptr %0, ptr %3, align 8
  %8 = load ptr, ptr %3, align 8
  %9 = call i64 @strlen(ptr noundef %8) #5
  %10 = trunc i64 %9 to i32
  store i32 %10, ptr %5, align 4
  store i8 0, ptr %6, align 1
  store i32 0, ptr %4, align 4
  br label %11

11:                                               ; preds = %36, %1
  %12 = load i32, ptr %4, align 4
  %13 = load i32, ptr %5, align 4
  %14 = icmp slt i32 %12, %13
  br i1 %14, label %15, label %39

15:                                               ; preds = %11
  %16 = load ptr, ptr %3, align 8
  %17 = load i32, ptr %4, align 4
  %18 = sext i32 %17 to i64
  %19 = getelementptr inbounds i8, ptr %16, i64 %18
  %20 = load i8, ptr %19, align 1
  store i8 %20, ptr %7, align 1
  %21 = load i8, ptr %6, align 1
  %22 = sext i8 %21 to i32
  %23 = icmp eq i32 %22, 47
  br i1 %23, label %24, label %34

24:                                               ; preds = %15
  %25 = load i8, ptr %7, align 1
  %26 = sext i8 %25 to i32
  %27 = icmp eq i32 %26, 47
  br i1 %27, label %28, label %34

28:                                               ; preds = %24
  %29 = load ptr, ptr %3, align 8
  %30 = load i32, ptr %5, align 4
  %31 = load i32, ptr %4, align 4
  %32 = sub nsw i32 %31, 1
  %33 = call ptr @normalizePath(ptr noundef %29, i32 noundef %30, i32 noundef %32)
  store ptr %33, ptr %2, align 8
  br label %51

34:                                               ; preds = %24, %15
  %35 = load i8, ptr %7, align 1
  store i8 %35, ptr %6, align 1
  br label %36

36:                                               ; preds = %34
  %37 = load i32, ptr %4, align 4
  %38 = add nsw i32 %37, 1
  store i32 %38, ptr %4, align 4
  br label %11, !llvm.loop !6

39:                                               ; preds = %11
  %40 = load i8, ptr %6, align 1
  %41 = sext i8 %40 to i32
  %42 = icmp eq i32 %41, 47
  br i1 %42, label %43, label %49

43:                                               ; preds = %39
  %44 = load ptr, ptr %3, align 8
  %45 = load i32, ptr %5, align 4
  %46 = load i32, ptr %5, align 4
  %47 = sub nsw i32 %46, 1
  %48 = call ptr @normalizePath(ptr noundef %44, i32 noundef %45, i32 noundef %47)
  store ptr %48, ptr %2, align 8
  br label %51

49:                                               ; preds = %39
  %50 = load ptr, ptr %3, align 8
  store ptr %50, ptr %2, align 8
  br label %51

51:                                               ; preds = %49, %43, %28
  %52 = load ptr, ptr %2, align 8
  ret ptr %52
}