; Function Attrs: nofree nounwind uwtable
define hidden noundef ptr @normalize_path(ptr noundef %0) local_unnamed_addr #0 {
  %2 = tail call i64 @strlen(ptr noundef nonnull dereferenceable(1) %0) #7
  %3 = trunc i64 %2 to i32
  %4 = icmp sgt i32 %3, 0
  br i1 %4, label %.lr.ph.preheader, label %._crit_edge.thread

.lr.ph.preheader:                                 ; preds = %1
  %wide.trip.count = and i64 %2, 2147483647
  br label %.lr.ph

.lr.ph:                                           ; preds = %.lr.ph.preheader, %11
  %indvars.iv = phi i64 [ 0, %.lr.ph.preheader ], [ %indvars.iv.next, %11 ]
  %.01925 = phi i8 [ 0, %.lr.ph.preheader ], [ %6, %11 ]
  %5 = getelementptr inbounds i8, ptr %0, i64 %indvars.iv
  %6 = load i8, ptr %5, align 1
  %7 = icmp eq i8 %.01925, 47
  %8 = icmp eq i8 %6, 47
  %or.cond = select i1 %7, i1 %8, i1 false
  br i1 %or.cond, label %9, label %11

9:                                                ; preds = %.lr.ph
  %10 = trunc nuw nsw i64 %indvars.iv to i32
  br label %._crit_edge.thread.sink.split

11:                                               ; preds = %.lr.ph
  %indvars.iv.next = add nuw nsw i64 %indvars.iv, 1
  %exitcond.not = icmp eq i64 %indvars.iv.next, %wide.trip.count
  br i1 %exitcond.not, label %._crit_edge, label %.lr.ph, !llvm.loop !6

._crit_edge:                                      ; preds = %11
  %12 = icmp eq i8 %6, 47
  br i1 %12, label %._crit_edge.thread.sink.split, label %._crit_edge.thread

._crit_edge.thread.sink.split:                    ; preds = %._crit_edge, %9
  %.sink31 = phi i32 [ %10, %9 ], [ %3, %._crit_edge ]
  %13 = add nsw i32 %.sink31, -1
  %14 = tail call fastcc ptr @normalizePath(ptr noundef nonnull %0, i32 noundef %3, i32 noundef %13)
  br label %._crit_edge.thread

._crit_edge.thread:                               ; preds = %._crit_edge.thread.sink.split, %1, %._crit_edge
  %.0 = phi ptr [ %0, %._crit_edge ], [ %0, %1 ], [ %14, %._crit_edge.thread.sink.split ]
  ret ptr %.0
}